target datalayout = "e-m:e-p270:32:32-p271:32:32-p272:64:64-i64:64-i128:128-f80:128-n8:16:32:64-S128"
target triple = "x86_64-pc-linux-gnu"

%struct.DdManager = type { %struct.DdNode, ptr, ptr, ptr, ptr, ptr, ptr, ptr, i32, i32, double, double, double, i32, i32, i32, i32, i32, i32, ptr, ptr, %struct.DdSubtable, i32, i32, i32, i32, i32, i32, i32, double, i32, i32, i32, ptr, i64, double, i32, ptr, ptr, ptr, ptr, ptr, ptr, ptr, i32, ptr, ptr, ptr, ptr, ptr, ptr, i32, i32, i32, double, i32, i32, i32, i32, double, double, i32, i32, i32, i32, i32, i32, i32, i32, i32, ptr, ptr, i32, i32, i32, i32, i32, i32, ptr, ptr, ptr, ptr, ptr, ptr, ptr, ptr, i32, i64, i64, i64, i32, i64, i64, double, double, double, double, double, double, i32, ptr, ptr, i64 }
%struct.DdNode = type { i32, i32, ptr, %union.anon, i64 }
%union.anon = type { %struct.DdChildren }
%struct.DdChildren = type { ptr, ptr }
%struct.DdSubtable = type { ptr, i32, i32, i32, i32, i32, i32, i32, i32, i32, i32, i32 }
%struct.ApproxInfo = type { ptr, ptr, ptr, ptr, i32, double, i32, double }
%struct.NodeData = type { double, double, i32, i8, i8, i16, ptr, ptr }
%struct.DdLevelQueue = type { ptr, ptr, ptr, ptr, i32, i32, i32, i32, i32, i32 }
%struct.LocalQueueItem = type { ptr, ptr, ptr, i32 }

; Function Attrs: nounwind uwtable
define internal i32 @computeSavings(ptr noundef %0, ptr noundef %1, ptr noundef %2, ptr noundef %3, ptr noundef %4) #0 {
  %6 = alloca i32, align 4
  %7 = alloca ptr, align 8
  %8 = alloca ptr, align 8
  %9 = alloca ptr, align 8
  %10 = alloca ptr, align 8
  %11 = alloca ptr, align 8
  %12 = alloca ptr, align 8
  %13 = alloca ptr, align 8
  %14 = alloca ptr, align 8
  %15 = alloca i32, align 4
  %16 = alloca i32, align 4
  store ptr %0, ptr %7, align 8, !tbaa !3
  store ptr %1, ptr %8, align 8, !tbaa !8
  store ptr %2, ptr %9, align 8, !tbaa !8
  store ptr %3, ptr %10, align 8, !tbaa !33
  store ptr %4, ptr %11, align 8, !tbaa !62
  call void @llvm.lifetime.start.p0(i64 8, ptr %12) #7
  call void @llvm.lifetime.start.p0(i64 8, ptr %13) #7
  call void @llvm.lifetime.start.p0(i64 8, ptr %14) #7
  call void @llvm.lifetime.start.p0(i64 4, ptr %15) #7
  store i32 0, ptr %15, align 4, !tbaa !10
  %17 = load ptr, ptr %8, align 8, !tbaa !8
  %18 = ptrtoint ptr %17 to i64
  %19 = and i64 %18, -2
  %20 = inttoptr i64 %19 to ptr
  store ptr %20, ptr %14, align 8, !tbaa !8
  %21 = load ptr, ptr %9, align 8, !tbaa !8
  %22 = ptrtoint ptr %21 to i64
  %23 = and i64 %22, -2
  %24 = inttoptr i64 %23 to ptr
  store ptr %24, ptr %9, align 8, !tbaa !8
  %25 = load ptr, ptr %11, align 8, !tbaa !62
  %26 = load ptr, ptr %14, align 8, !tbaa !8
  %27 = load ptr, ptr %14, align 8, !tbaa !8
  %28 = getelementptr inbounds nuw %struct.DdNode, ptr %27, i32 0, i32 0
  %29 = load i32, ptr %28, align 8, !tbaa !32
  %30 = icmp eq i32 %29, 2147483647
  br i1 %30, label %31, label %35

31:                                               ; preds = %5
  %32 = load ptr, ptr %14, align 8, !tbaa !8
  %33 = getelementptr inbounds nuw %struct.DdNode, ptr %32, i32 0, i32 0
  %34 = load i32, ptr %33, align 8, !tbaa !32
  br label %45

35:                                               ; preds = %5
  %36 = load ptr, ptr %7, align 8, !tbaa !3
  %37 = getelementptr inbounds nuw %struct.DdManager, ptr %36, i32 0, i32 37
  %38 = load ptr, ptr %37, align 8, !tbaa !65
  %39 = load ptr, ptr %14, align 8, !tbaa !8
  %40 = getelementptr inbounds nuw %struct.DdNode, ptr %39, i32 0, i32 0
  %41 = load i32, ptr %40, align 8, !tbaa !32
  %42 = zext i32 %41 to i64
  %43 = getelementptr inbounds nuw i32, ptr %38, i64 %42
  %44 = load i32, ptr %43, align 4, !tbaa !10
  br label %45

45:                                               ; preds = %35, %31
  %46 = phi i32 [ %34, %31 ], [ %44, %35 ]
  %47 = call ptr @cuddLevelQueueEnqueue(ptr noundef %25, ptr noundef %26, i32 noundef %46)
  store ptr %47, ptr %13, align 8, !tbaa !93
  %48 = load ptr, ptr %13, align 8, !tbaa !93
  %49 = icmp eq ptr %48, null
  br i1 %49, label %50, label %51

50:                                               ; preds = %45
  store i32 0, ptr %6, align 4
  store i32 1, ptr %16, align 4
  br label %237

51:                                               ; preds = %45
  %52 = load ptr, ptr %10, align 8, !tbaa !33
  %53 = getelementptr inbounds nuw %struct.ApproxInfo, ptr %52, i32 0, i32 3
  %54 = load ptr, ptr %53, align 8, !tbaa !40
  %55 = load ptr, ptr %14, align 8, !tbaa !8
  %56 = call i32 @st__lookup(ptr noundef %54, ptr noundef %55, ptr noundef %12)
  %57 = load ptr, ptr %12, align 8, !tbaa !57
  %58 = getelementptr inbounds nuw %struct.NodeData, ptr %57, i32 0, i32 2
  %59 = load i32, ptr %58, align 8, !tbaa !60
  %60 = load ptr, ptr %13, align 8, !tbaa !93
  %61 = getelementptr inbounds nuw %struct.LocalQueueItem, ptr %60, i32 0, i32 3
  store i32 %59, ptr %61, align 8, !tbaa !95
  br label %62

62:                                               ; preds = %234, %112, %98, %51
  %63 = load ptr, ptr %11, align 8, !tbaa !62
  %64 = getelementptr inbounds nuw %struct.DdLevelQueue, ptr %63, i32 0, i32 0
  %65 = load ptr, ptr %64, align 8, !tbaa !71
  %66 = icmp ne ptr %65, null
  br i1 %66, label %67, label %235

67:                                               ; preds = %62
  %68 = load ptr, ptr %11, align 8, !tbaa !62
  %69 = getelementptr inbounds nuw %struct.DdLevelQueue, ptr %68, i32 0, i32 0
  %70 = load ptr, ptr %69, align 8, !tbaa !71
  store ptr %70, ptr %13, align 8, !tbaa !93
  %71 = load ptr, ptr %13, align 8, !tbaa !93
  %72 = getelementptr inbounds nuw %struct.LocalQueueItem, ptr %71, i32 0, i32 2
  %73 = load ptr, ptr %72, align 8, !tbaa !97
  store ptr %73, ptr %14, align 8, !tbaa !8
  %74 = load ptr, ptr %11, align 8, !tbaa !62
  %75 = load ptr, ptr %14, align 8, !tbaa !8
  %76 = getelementptr inbounds nuw %struct.DdNode, ptr %75, i32 0, i32 0
  %77 = load i32, ptr %76, align 8, !tbaa !32
  %78 = icmp eq i32 %77, 2147483647
  br i1 %78, label %79, label %83

79:                                               ; preds = %67
  %80 = load ptr, ptr %14, align 8, !tbaa !8
  %81 = getelementptr inbounds nuw %struct.DdNode, ptr %80, i32 0, i32 0
  %82 = load i32, ptr %81, align 8, !tbaa !32
  br label %93

83:                                               ; preds = %67
  %84 = load ptr, ptr %7, align 8, !tbaa !3
  %85 = getelementptr inbounds nuw %struct.DdManager, ptr %84, i32 0, i32 37
  %86 = load ptr, ptr %85, align 8, !tbaa !65
  %87 = load ptr, ptr %14, align 8, !tbaa !8
  %88 = getelementptr inbounds nuw %struct.DdNode, ptr %87, i32 0, i32 0
  %89 = load i32, ptr %88, align 8, !tbaa !32
  %90 = zext i32 %89 to i64
  %91 = getelementptr inbounds nuw i32, ptr %86, i64 %90
  %92 = load i32, ptr %91, align 4, !tbaa !10
  br label %93

93:                                               ; preds = %83, %79
  %94 = phi i32 [ %82, %79 ], [ %92, %83 ]
  call void @cuddLevelQueueDequeue(ptr noundef %74, i32 noundef %94)
  %95 = load ptr, ptr %14, align 8, !tbaa !8
  %96 = load ptr, ptr %9, align 8, !tbaa !8
  %97 = icmp eq ptr %95, %96
  br i1 %97, label %98, label %99

98:                                               ; preds = %93
  br label %62, !llvm.loop !98

99:                                               ; preds = %93
  %100 = load ptr, ptr %10, align 8, !tbaa !33
  %101 = getelementptr inbounds nuw %struct.ApproxInfo, ptr %100, i32 0, i32 3
  %102 = load ptr, ptr %101, align 8, !tbaa !40
  %103 = load ptr, ptr %14, align 8, !tbaa !8
  %104 = call i32 @st__lookup(ptr noundef %102, ptr noundef %103, ptr noundef %12)
  %105 = load ptr, ptr %13, align 8, !tbaa !93
  %106 = getelementptr inbounds nuw %struct.LocalQueueItem, ptr %105, i32 0, i32 3
  %107 = load i32, ptr %106, align 8, !tbaa !95
  %108 = load ptr, ptr %12, align 8, !tbaa !57
  %109 = getelementptr inbounds nuw %struct.NodeData, ptr %108, i32 0, i32 2
  %110 = load i32, ptr %109, align 8, !tbaa !60
  %111 = icmp ne i32 %107, %110
  br i1 %111, label %112, label %113

112:                                              ; preds = %99
  br label %62, !llvm.loop !98

113:                                              ; preds = %99
  %114 = load i32, ptr %15, align 4, !tbaa !10
  %115 = add nsw i32 %114, 1
  store i32 %115, ptr %15, align 4, !tbaa !10
  %116 = load ptr, ptr %14, align 8, !tbaa !8
  %117 = getelementptr inbounds nuw %struct.DdNode, ptr %116, i32 0, i32 3
  %118 = getelementptr inbounds nuw %struct.DdChildren, ptr %117, i32 0, i32 0
  %119 = load ptr, ptr %118, align 8, !tbaa !79
  %120 = getelementptr inbounds nuw %struct.DdNode, ptr %119, i32 0, i32 0
  %121 = load i32, ptr %120, align 8, !tbaa !32
  %122 = icmp eq i32 %121, 2147483647
  br i1 %122, label %167, label %123

123:                                              ; preds = %113
  %124 = load ptr, ptr %11, align 8, !tbaa !62
  %125 = load ptr, ptr %14, align 8, !tbaa !8
  %126 = getelementptr inbounds nuw %struct.DdNode, ptr %125, i32 0, i32 3
  %127 = getelementptr inbounds nuw %struct.DdChildren, ptr %126, i32 0, i32 0
  %128 = load ptr, ptr %127, align 8, !tbaa !79
  %129 = load ptr, ptr %14, align 8, !tbaa !8
  %130 = getelementptr inbounds nuw %struct.DdNode, ptr %129, i32 0, i32 3
  %131 = getelementptr inbounds nuw %struct.DdChildren, ptr %130, i32 0, i32 0
  %132 = load ptr, ptr %131, align 8, !tbaa !79
  %133 = getelementptr inbounds nuw %struct.DdNode, ptr %132, i32 0, i32 0
  %134 = load i32, ptr %133, align 8, !tbaa !32
  %135 = icmp eq i32 %134, 2147483647
  br i1 %135, label %136, label %143

136:                                              ; preds = %123
  %137 = load ptr, ptr %14, align 8, !tbaa !8
  %138 = getelementptr inbounds nuw %struct.DdNode, ptr %137, i32 0, i32 3
  %139 = getelementptr inbounds nuw %struct.DdChildren, ptr %138, i32 0, i32 0
  %140 = load ptr, ptr %139, align 8, !tbaa !79
  %141 = getelementptr inbounds nuw %struct.DdNode, ptr %140, i32 0, i32 0
  %142 = load i32, ptr %141, align 8, !tbaa !32
  br label %156

143:                                              ; preds = %123
  %144 = load ptr, ptr %7, align 8, !tbaa !3
  %145 = getelementptr inbounds nuw %struct.DdManager, ptr %144, i32 0, i32 37
  %146 = load ptr, ptr %145, align 8, !tbaa !65
  %147 = load ptr, ptr %14, align 8, !tbaa !8
  %148 = getelementptr inbounds nuw %struct.DdNode, ptr %147, i32 0, i32 3
  %149 = getelementptr inbounds nuw %struct.DdChildren, ptr %148, i32 0, i32 0
  %150 = load ptr, ptr %149, align 8, !tbaa !79
  %151 = getelementptr inbounds nuw %struct.DdNode, ptr %150, i32 0, i32 0
  %152 = load i32, ptr %151, align 8, !tbaa !32
  %153 = zext i32 %152 to i64
  %154 = getelementptr inbounds nuw i32, ptr %146, i64 %153
  %155 = load i32, ptr %154, align 4, !tbaa !10
  br label %156

156:                                              ; preds = %143, %136
  %157 = phi i32 [ %142, %136 ], [ %155, %143 ]
  %158 = call ptr @cuddLevelQueueEnqueue(ptr noundef %124, ptr noundef %128, i32 noundef %157)
  store ptr %158, ptr %13, align 8, !tbaa !93
  %159 = load ptr, ptr %13, align 8, !tbaa !93
  %160 = icmp eq ptr %159, null
  br i1 %160, label %161, label %162

161:                                              ; preds = %156
  store i32 0, ptr %6, align 4
  store i32 1, ptr %16, align 4
  br label %237

162:                                              ; preds = %156
  %163 = load ptr, ptr %13, align 8, !tbaa !93
  %164 = getelementptr inbounds nuw %struct.LocalQueueItem, ptr %163, i32 0, i32 3
  %165 = load i32, ptr %164, align 8, !tbaa !95
  %166 = add nsw i32 %165, 1
  store i32 %166, ptr %164, align 8, !tbaa !95
  br label %167

167:                                              ; preds = %162, %113
  %168 = load ptr, ptr %14, align 8, !tbaa !8
  %169 = getelementptr inbounds nuw %struct.DdNode, ptr %168, i32 0, i32 3
  %170 = getelementptr inbounds nuw %struct.DdChildren, ptr %169, i32 0, i32 1
  %171 = load ptr, ptr %170, align 8, !tbaa !79
  %172 = ptrtoint ptr %171 to i64
  %173 = and i64 %172, -2
  %174 = inttoptr i64 %173 to ptr
  %175 = getelementptr inbounds nuw %struct.DdNode, ptr %174, i32 0, i32 0
  %176 = load i32, ptr %175, align 8, !tbaa !32
  %177 = icmp eq i32 %176, 2147483647
  br i1 %177, label %234, label %178

178:                                              ; preds = %167
  %179 = load ptr, ptr %11, align 8, !tbaa !62
  %180 = load ptr, ptr %14, align 8, !tbaa !8
  %181 = getelementptr inbounds nuw %struct.DdNode, ptr %180, i32 0, i32 3
  %182 = getelementptr inbounds nuw %struct.DdChildren, ptr %181, i32 0, i32 1
  %183 = load ptr, ptr %182, align 8, !tbaa !79
  %184 = ptrtoint ptr %183 to i64
  %185 = and i64 %184, -2
  %186 = inttoptr i64 %185 to ptr
  %187 = load ptr, ptr %14, align 8, !tbaa !8
  %188 = getelementptr inbounds nuw %struct.DdNode, ptr %187, i32 0, i32 3
  %189 = getelementptr inbounds nuw %struct.DdChildren, ptr %188, i32 0, i32 1
  %190 = load ptr, ptr %189, align 8, !tbaa !79
  %191 = ptrtoint ptr %190 to i64
  %192 = and i64 %191, -2
  %193 = inttoptr i64 %192 to ptr
  %194 = getelementptr inbounds nuw %struct.DdNode, ptr %193, i32 0, i32 0
  %195 = load i32, ptr %194, align 8, !tbaa !32
  %196 = icmp eq i32 %195, 2147483647
  br i1 %196, label %197, label %207

197:                                              ; preds = %178
  %198 = load ptr, ptr %14, align 8, !tbaa !8
  %199 = getelementptr inbounds nuw %struct.DdNode, ptr %198, i32 0, i32 3
  %200 = getelementptr inbounds nuw %struct.DdChildren, ptr %199, i32 0, i32 1
  %201 = load ptr, ptr %200, align 8, !tbaa !79
  %202 = ptrtoint ptr %201 to i64
  %203 = and i64 %202, -2
  %204 = inttoptr i64 %203 to ptr
  %205 = getelementptr inbounds nuw %struct.DdNode, ptr %204, i32 0, i32 0
  %206 = load i32, ptr %205, align 8, !tbaa !32
  br label %223

207:                                              ; preds = %178
  %208 = load ptr, ptr %7, align 8, !tbaa !3
  %209 = getelementptr inbounds nuw %struct.DdManager, ptr %208, i32 0, i32 37
  %210 = load ptr, ptr %209, align 8, !tbaa !65
  %211 = load ptr, ptr %14, align 8, !tbaa !8
  %212 = getelementptr inbounds nuw %struct.DdNode, ptr %211, i32 0, i32 3
  %213 = getelementptr inbounds nuw %struct.DdChildren, ptr %212, i32 0, i32 1
  %214 = load ptr, ptr %213, align 8, !tbaa !79
  %215 = ptrtoint ptr %214 to i64
  %216 = and i64 %215, -2
  %217 = inttoptr i64 %216 to ptr
  %218 = getelementptr inbounds nuw %struct.DdNode, ptr %217, i32 0, i32 0
  %219 = load i32, ptr %218, align 8, !tbaa !32
  %220 = zext i32 %219 to i64
  %221 = getelementptr inbounds nuw i32, ptr %210, i64 %220
  %222 = load i32, ptr %221, align 4, !tbaa !10
  br label %223

223:                                              ; preds = %207, %197
  %224 = phi i32 [ %206, %197 ], [ %222, %207 ]
  %225 = call ptr @cuddLevelQueueEnqueue(ptr noundef %179, ptr noundef %186, i32 noundef %224)
  store ptr %225, ptr %13, align 8, !tbaa !93
  %226 = load ptr, ptr %13, align 8, !tbaa !93
  %227 = icmp eq ptr %226, null
  br i1 %227, label %228, label %229

228:                                              ; preds = %223
  store i32 0, ptr %6, align 4
  store i32 1, ptr %16, align 4
  br label %237

229:                                              ; preds = %223
  %230 = load ptr, ptr %13, align 8, !tbaa !93
  %231 = getelementptr inbounds nuw %struct.LocalQueueItem, ptr %230, i32 0, i32 3
  %232 = load i32, ptr %231, align 8, !tbaa !95
  %233 = add nsw i32 %232, 1
  store i32 %233, ptr %231, align 8, !tbaa !95
  br label %234

234:                                              ; preds = %229, %167
  br label %62, !llvm.loop !98

235:                                              ; preds = %62
  %236 = load i32, ptr %15, align 4, !tbaa !10
  store i32 %236, ptr %6, align 4
  store i32 1, ptr %16, align 4
  br label %237

237:                                              ; preds = %235, %228, %161, %50
  call void @llvm.lifetime.end.p0(i64 4, ptr %15) #7
  call void @llvm.lifetime.end.p0(i64 8, ptr %14) #7
  call void @llvm.lifetime.end.p0(i64 8, ptr %13) #7
  call void @llvm.lifetime.end.p0(i64 8, ptr %12) #7
  %238 = load i32, ptr %6, align 4
  ret i32 %238
}