; Function Attrs: nounwind uwtable
define internal fastcc i32 @computeSavings(ptr noundef readonly captures(none) %0, ptr noundef %1, ptr noundef %2, ptr noundef nonnull readonly captures(none) %3, ptr noundef nonnull %4) unnamed_addr #0 {
  %6 = alloca ptr, align 8
  call void @llvm.lifetime.start.p0(i64 8, ptr nonnull %6) #10
  %7 = ptrtoint ptr %1 to i64
  %8 = and i64 %7, -2
  %9 = inttoptr i64 %8 to ptr
  %10 = ptrtoint ptr %2 to i64
  %11 = and i64 %10, -2
  %12 = inttoptr i64 %11 to ptr
  %13 = load i32, ptr %9, align 8, !tbaa !27
  %14 = icmp eq i32 %13, 2147483647
  br i1 %14, label %21, label %15

15:                                               ; preds = %5
  %16 = getelementptr inbounds nuw i8, ptr %0, i64 312
  %17 = load ptr, ptr %16, align 8, !tbaa !35
  %18 = zext i32 %13 to i64
  %19 = getelementptr inbounds nuw i32, ptr %17, i64 %18
  %20 = load i32, ptr %19, align 4, !tbaa !36
  br label %21

21:                                               ; preds = %5, %15
  %22 = phi i32 [ %20, %15 ], [ 2147483647, %5 ]
  %23 = tail call ptr @cuddLevelQueueEnqueue(ptr noundef nonnull %4, ptr noundef nonnull %9, i32 noundef %22) #10
  %24 = icmp eq ptr %23, null
  br i1 %24, label %.loopexit, label %25

25:                                               ; preds = %21
  %26 = getelementptr inbounds nuw i8, ptr %3, i64 24
  %27 = load ptr, ptr %26, align 8, !tbaa !46
  %28 = call i32 @st__lookup(ptr noundef %27, ptr noundef nonnull %9, ptr noundef nonnull %6) #10
  %29 = load ptr, ptr %6, align 8, !tbaa !47
  %30 = getelementptr inbounds nuw i8, ptr %29, i64 16
  %31 = load i32, ptr %30, align 8, !tbaa !61
  %32 = getelementptr inbounds nuw i8, ptr %23, i64 24
  store i32 %31, ptr %32, align 8, !tbaa !83
  %33 = load ptr, ptr %4, align 8, !tbaa !41
  %.not5961 = icmp eq ptr %33, null
  br i1 %.not5961, label %.loopexit, label %.lr.ph.lr.ph

.lr.ph.lr.ph:                                     ; preds = %25
  %34 = getelementptr inbounds nuw i8, ptr %0, i64 312
  br label %.lr.ph

.lr.ph:                                           ; preds = %.lr.ph.lr.ph, %.outer
  %35 = phi ptr [ %33, %.lr.ph.lr.ph ], [ %95, %.outer ]
  %.0.ph62 = phi i32 [ 0, %.lr.ph.lr.ph ], [ %60, %.outer ]
  br label %36

36:                                               ; preds = %.lr.ph, %.backedge
  %37 = phi ptr [ %35, %.lr.ph ], [ %50, %.backedge ]
  %38 = getelementptr inbounds nuw i8, ptr %37, i64 16
  %39 = load ptr, ptr %38, align 8, !tbaa !86
  %40 = load i32, ptr %39, align 8, !tbaa !27
  %41 = icmp eq i32 %40, 2147483647
  br i1 %41, label %47, label %42

42:                                               ; preds = %36
  %43 = load ptr, ptr %34, align 8, !tbaa !35
  %44 = zext i32 %40 to i64
  %45 = getelementptr inbounds nuw i32, ptr %43, i64 %44
  %46 = load i32, ptr %45, align 4, !tbaa !36
  br label %47

47:                                               ; preds = %36, %42
  %48 = phi i32 [ %46, %42 ], [ 2147483647, %36 ]
  call void @cuddLevelQueueDequeue(ptr noundef nonnull %4, i32 noundef %48) #10
  %49 = icmp eq ptr %39, %12
  br i1 %49, label %.backedge, label %51

.backedge:                                        ; preds = %47, %51
  %50 = load ptr, ptr %4, align 8, !tbaa !41
  %.not = icmp eq ptr %50, null
  br i1 %.not, label %.loopexit, label %36, !llvm.loop !87

51:                                               ; preds = %47
  %52 = load ptr, ptr %26, align 8, !tbaa !46
  %53 = call i32 @st__lookup(ptr noundef %52, ptr noundef nonnull %39, ptr noundef nonnull %6) #10
  %54 = getelementptr inbounds nuw i8, ptr %37, i64 24
  %55 = load i32, ptr %54, align 8, !tbaa !83
  %56 = load ptr, ptr %6, align 8, !tbaa !47
  %57 = getelementptr inbounds nuw i8, ptr %56, i64 16
  %58 = load i32, ptr %57, align 8, !tbaa !61
  %.not56 = icmp eq i32 %55, %58
  br i1 %.not56, label %59, label %.backedge

59:                                               ; preds = %51
  %60 = add nuw nsw i32 %.0.ph62, 1
  %61 = getelementptr inbounds nuw i8, ptr %39, i64 16
  %62 = load ptr, ptr %61, align 8, !tbaa !56
  %63 = load i32, ptr %62, align 8, !tbaa !27
  %64 = icmp eq i32 %63, 2147483647
  br i1 %64, label %76, label %65

65:                                               ; preds = %59
  %66 = load ptr, ptr %34, align 8, !tbaa !35
  %67 = zext i32 %63 to i64
  %68 = getelementptr inbounds nuw i32, ptr %66, i64 %67
  %69 = load i32, ptr %68, align 4, !tbaa !36
  %70 = call ptr @cuddLevelQueueEnqueue(ptr noundef nonnull %4, ptr noundef nonnull %62, i32 noundef %69) #10
  %71 = icmp eq ptr %70, null
  br i1 %71, label %.loopexit, label %72

72:                                               ; preds = %65
  %73 = getelementptr inbounds nuw i8, ptr %70, i64 24
  %74 = load i32, ptr %73, align 8, !tbaa !83
  %75 = add nsw i32 %74, 1
  store i32 %75, ptr %73, align 8, !tbaa !83
  br label %76

76:                                               ; preds = %72, %59
  %77 = getelementptr inbounds nuw i8, ptr %39, i64 24
  %78 = load ptr, ptr %77, align 8, !tbaa !56
  %79 = ptrtoint ptr %78 to i64
  %80 = and i64 %79, -2
  %81 = inttoptr i64 %80 to ptr
  %82 = load i32, ptr %81, align 8, !tbaa !27
  %83 = icmp eq i32 %82, 2147483647
  br i1 %83, label %.outer, label %84

84:                                               ; preds = %76
  %85 = load ptr, ptr %34, align 8, !tbaa !35
  %86 = zext i32 %82 to i64
  %87 = getelementptr inbounds nuw i32, ptr %85, i64 %86
  %88 = load i32, ptr %87, align 4, !tbaa !36
  %89 = call ptr @cuddLevelQueueEnqueue(ptr noundef nonnull %4, ptr noundef nonnull %81, i32 noundef %88) #10
  %90 = icmp eq ptr %89, null
  br i1 %90, label %.loopexit, label %91

91:                                               ; preds = %84
  %92 = getelementptr inbounds nuw i8, ptr %89, i64 24
  %93 = load i32, ptr %92, align 8, !tbaa !83
  %94 = add nsw i32 %93, 1
  store i32 %94, ptr %92, align 8, !tbaa !83
  br label %.outer

.outer:                                           ; preds = %91, %76
  %95 = load ptr, ptr %4, align 8, !tbaa !41
  %.not59 = icmp eq ptr %95, null
  br i1 %.not59, label %.loopexit, label %.lr.ph, !llvm.loop !87

.loopexit:                                        ; preds = %.outer, %84, %65, %.backedge, %25, %21
  %.045 = phi i32 [ 0, %21 ], [ 0, %25 ], [ %.0.ph62, %.backedge ], [ %60, %.outer ], [ 0, %84 ], [ 0, %65 ]
  call void @llvm.lifetime.end.p0(i64 8, ptr nonnull %6) #10
  ret i32 %.045
}